target datalayout = "e-m:e-p270:32:32-p271:32:32-p272:64:64-i64:64-i128:128-f80:128-n8:16:32:64-S128"
target triple = "x86_64-pc-linux-gnu"

@refstats_node_id_to_parent_node_id_hash = internal global ptr null, align 8
@refstats_node_id_to_uri_hash = internal global ptr null, align 8
@refstats_uri_to_node_id_hash = internal global ptr null, align 8

; Function Attrs: null_pointer_is_valid sspstrong uwtable
define internal void @http_seq_stats_tick_request(ptr noundef %0, ptr noundef %1, i32 noundef %2) #0 {
  %4 = alloca ptr, align 8
  %5 = alloca ptr, align 8
  %6 = alloca i32, align 4
  %7 = alloca ptr, align 8
  %8 = alloca i32, align 4
  %9 = alloca ptr, align 8
  %10 = alloca ptr, align 8
  store ptr %0, ptr %4, align 8
  store ptr %1, ptr %5, align 8
  store i32 %2, ptr %6, align 4
  call void @llvm.lifetime.start.p0(i64 8, ptr %7) #19
  %11 = load i32, ptr %6, align 4
  %12 = sext i32 %11 to i64
  %13 = inttoptr i64 %12 to ptr
  store ptr %13, ptr %7, align 8
  call void @llvm.lifetime.start.p0(i64 4, ptr %8) #19
  call void @llvm.lifetime.start.p0(i64 8, ptr %9) #19
  call void @llvm.lifetime.start.p0(i64 8, ptr %10) #19
  %14 = load ptr, ptr %4, align 8
  %15 = load ptr, ptr %5, align 8
  %16 = load i32, ptr %6, align 4
  %17 = call i32 @stats_tree_manip_node_int(i32 noundef 0, ptr noundef %14, ptr noundef %15, i32 noundef %16, i1 noundef zeroext true, i32 noundef 1)
  store i32 %17, ptr %8, align 4
  %18 = load i32, ptr %8, align 4
  %19 = sext i32 %18 to i64
  %20 = inttoptr i64 %19 to ptr
  store ptr %20, ptr %9, align 8
  %21 = load ptr, ptr @refstats_node_id_to_uri_hash, align 8
  %22 = load ptr, ptr %9, align 8
  %23 = call ptr @wmem_map_lookup(ptr noundef %21, ptr noundef %22)
  store ptr %23, ptr %10, align 8
  %24 = load ptr, ptr %10, align 8
  %25 = icmp ne ptr %24, null
  br i1 %25, label %42, label %26

26:                                               ; preds = %3
  %27 = call ptr @wmem_file_scope()
  %28 = load ptr, ptr %5, align 8
  %29 = call noalias ptr @wmem_strdup(ptr noundef %27, ptr noundef %28)
  store ptr %29, ptr %10, align 8
  %30 = load ptr, ptr @refstats_uri_to_node_id_hash, align 8
  %31 = load ptr, ptr %10, align 8
  %32 = load ptr, ptr %9, align 8
  %33 = call ptr @wmem_map_insert(ptr noundef %30, ptr noundef %31, ptr noundef %32)
  %34 = load ptr, ptr @refstats_node_id_to_uri_hash, align 8
  %35 = load ptr, ptr %9, align 8
  %36 = load ptr, ptr %10, align 8
  %37 = call ptr @wmem_map_insert(ptr noundef %34, ptr noundef %35, ptr noundef %36)
  %38 = load ptr, ptr @refstats_node_id_to_parent_node_id_hash, align 8
  %39 = load ptr, ptr %9, align 8
  %40 = load ptr, ptr %7, align 8
  %41 = call ptr @wmem_map_insert(ptr noundef %38, ptr noundef %39, ptr noundef %40)
  br label %47

42:                                               ; preds = %3
  %43 = load ptr, ptr @refstats_uri_to_node_id_hash, align 8
  %44 = load ptr, ptr %10, align 8
  %45 = load ptr, ptr %9, align 8
  %46 = call ptr @wmem_map_insert(ptr noundef %43, ptr noundef %44, ptr noundef %45)
  br label %47

47:                                               ; preds = %42, %26
  call void @llvm.lifetime.end.p0(i64 8, ptr %10) #19
  call void @llvm.lifetime.end.p0(i64 8, ptr %9) #19
  call void @llvm.lifetime.end.p0(i64 4, ptr %8) #19
  call void @llvm.lifetime.end.p0(i64 8, ptr %7) #19
  ret void
}