; Function Attrs: null_pointer_is_valid sspstrong uwtable
define internal fastcc void @http_seq_stats_tick_request(ptr noundef %0, ptr noundef %1, i32 noundef %2) unnamed_addr #0 {
  %4 = tail call i32 @stats_tree_manip_node_int(i32 noundef 0, ptr noundef %0, ptr noundef %1, i32 noundef %2, i1 noundef zeroext true, i32 noundef 1)
  %5 = sext i32 %4 to i64
  %6 = inttoptr i64 %5 to ptr
  %7 = load ptr, ptr @refstats_node_id_to_uri_hash, align 8
  %8 = tail call ptr @wmem_map_lookup(ptr noundef %7, ptr noundef %6)
  %.not = icmp eq ptr %8, null
  br i1 %.not, label %9, label %20

9:                                                ; preds = %3
  %10 = sext i32 %2 to i64
  %11 = inttoptr i64 %10 to ptr
  %12 = tail call ptr @wmem_file_scope()
  %13 = tail call noalias ptr @wmem_strdup(ptr noundef %12, ptr noundef %1)
  %14 = load ptr, ptr @refstats_uri_to_node_id_hash, align 8
  %15 = tail call ptr @wmem_map_insert(ptr noundef %14, ptr noundef %13, ptr noundef %6)
  %16 = load ptr, ptr @refstats_node_id_to_uri_hash, align 8
  %17 = tail call ptr @wmem_map_insert(ptr noundef %16, ptr noundef %6, ptr noundef %13)
  %18 = load ptr, ptr @refstats_node_id_to_parent_node_id_hash, align 8
  %19 = tail call ptr @wmem_map_insert(ptr noundef %18, ptr noundef %6, ptr noundef %11)
  br label %23

20:                                               ; preds = %3
  %21 = load ptr, ptr @refstats_uri_to_node_id_hash, align 8
  %22 = tail call ptr @wmem_map_insert(ptr noundef %21, ptr noundef nonnull %8, ptr noundef %6)
  br label %23

23:                                               ; preds = %20, %9
  ret void
}